(lp0
(F322.0
F643.0
tp1
a(F318.0
F645.0
tp2
a(F341.0
F607.0
tp3
a(F337.0
F610.0
tp4
a(F420.0
F644.0
tp5
a(F423.0
F642.0
tp6
a(F410.0
F686.0
tp7
a(F299.0
F687.0
tp8
a(F186.0
F686.0
tp9
a(F184.0
F688.0
tp10
a(F220.0
F644.0
tp11
a(F216.0
F646.0
tp12
a(F245.0
F610.0
tp13
a(F249.0
F608.0
tp14
a(F71.0
F687.0
tp15
a(F523.0
F644.0
tp16
a(F521.0
F642.0
tp17
a(F523.0
F686.0
tp18
a(F634.0
F686.0
tp19
a(F625.0
F644.0
tp20
a(F622.0
F642.0
tp21
a(F624.0
F642.0
tp22
a(F617.0
F609.0
tp23
a(F613.0
F606.0
tp24
a(F728.0
F645.0
tp25
a(F724.0
F642.0
tp26
a(F749.0
F687.0
tp27
a(F747.0
F685.0
tp28
a(F827.0
F643.0
tp29
a(F831.0
F645.0
tp30
a(F862.0
F686.0
tp31
a(F976.0
F684.0
tp32
a(F980.0
F686.0
tp33
a(F931.0
F641.0
tp34
a(F893.0
F607.0
tp35
a(F804.0
F609.0
tp36
a(F799.0
F606.0
tp37
a(F694.0
F578.0
tp38
a(F691.0
F576.0
tp39
a(F659.0
F511.0
tp40
a(F662.0
F513.0
tp41
a(F438.0
F579.0
tp42
a(F441.0
F576.0
tp43
a(F523.0
F576.0
tp44
a(F523.0
F553.0
tp45
a(F525.0
F549.0
tp46
a(F525.0
F531.0
tp47
a(F430.0
F609.0
tp48
a(F431.0
F607.0
tp49
a(F353.0
F579.0
tp50
a(F357.0
F578.0
tp51
a(F367.0
F554.0
tp52
a(F371.0
F552.0
tp53
a(F258.0
F512.0
tp54
a(F468.0
F482.0
tp55
a(F464.0
F495.0
tp56
a(F461.0
F497.0
tp57
a(F392.0
F512.0
tp58
a(F389.0
F514.0
tp59
a(F608.0
F576.0
tp60
a(F606.0
F576.0
tp61
a(F706.0
F607.0
tp62
a(F710.0
F609.0
tp63
a(F757.0
F551.0
tp64
a(F762.0
F554.0
tp65
a(F741.0
F530.0
tp66
a(F745.0
F532.0
tp67
a(F655.0
F497.0
tp68
a(F651.0
F494.0
tp69
a(F524.0
F514.0
tp70
a(F526.0
F511.0
tp71
a(F863.0
F575.0
tp72
a(F525.0
F495.0
tp73
a(F525.0
F482.0
tp74
a.