cnumpy.core.multiarray
_reconstruct
p0
(cnumpy
ndarray
p1
(I0
tp2
S'b'
p3
tp4
Rp5
(I1
(I896
tp6
cnumpy
dtype
p7
(S'S1'
p8
I0
I1
tp9
Rp10
(I3
S'|'
p11
NNNI1
I1
I0
tp12
bI00
S'XWWBXWXWXWWBXWXXXXXBBWXBWXXBXXWBWXBBXXXBBWBBBBBOBOOBBBBOBOOOOOOOWXXXWXXWWXXXWXXWWXWXWXXOXWXWWBWOXXXBOBXBBXXBOBBOBBWBOBBOBBOOOBOOXXXXBWBXXXXWBWBXWBXWXWXXBBXWWWWBBBXWWWXBBBBXWWXBBBOXOWBBBBBBOWOBXXBWBWXWXXBWBWXWXXBWXWXXBXXOXWWXBWXOXWXXBOXBWWXWBOXBOWXWOOBBOWWBXXBXXWWWWXBBWWWXWWBBXWWBXWBBWXXBXWXBWXXBBWWBXXXBBWWBBXBWBOWOBWOWBBBOWWWWBBBBWWWWBBBBWWWWBBOBWOWWBBOBWOWWBBOOOOWWBBOOOOWWBBOOOOWWBBBPWWWWBBBBWWWWBBBBWWWWBOBBWOWWBBOBWOWWBBOOOOWWBBOOOOWWBBOOOOWWBBBOWWWWBBBBWWWWBBBBWWWWBOBBWOWWBOBBWOWWBBBBWOWWBBBOOOWWBBOOOOWWBBBBOWWWBBBBBWWWBBBBXWWWBOOBXWWWBOBBXWWWBBBBWWWWBBBOOWWWBBOOOOWWBBOBWWWWBBOBXOWWBBOBXOWWBOOBXWWWBOBBXWWWBBBBWWWWBBBOOWWWBBOOOOWOBBBBWWWWBBBBXWWOBBBBXOWWOBOBXWWWBBBBXWWWBBBBWWWWBBBOOWWWBBOOOOWOBBBBWWWWBBBBWWWBBBBBWWBXOBOBWOBWBBBBWOXWBBBBWOWWBBBOOOWWBBOOOOWWBBBBWWOWBBBBWWBWBBBBXWBWOBOBXOBWBBBOXOXWBBBOXOWWBBBOBOWWBBOOOOWOBBOBWWOWOBOBWWBOOOOBXWBWOOOBXOBWBOBOXOXWBBBOXOWWBBBOBOWWBBOOOOWO'
p13
tp14
b.